target datalayout = "e-m:e-p270:32:32-p271:32:32-p272:64:64-i64:64-i128:128-f80:128-n8:16:32:64-S128"
target triple = "x86_64-pc-linux-gnu"

%struct.macroblockd = type { i32, i32, i32, i8, [3 x %struct.macroblockd_plane], %struct.TileInfo, ptr, i8, i8, i8, i8, ptr, ptr, ptr, ptr, ptr, i32, i32, i32, i32, i32, [2 x ptr], ptr, [3 x ptr], [3 x [32 x i8]], ptr, [32 x i8], ptr, ptr, [32 x i8], [3 x %struct.WienerInfo], [3 x %struct.SgrprojInfo], i8, i8, [29 x [8 x %struct.candidate_mv]], [29 x [8 x i16]], i8, i8, [8 x i8], ptr, i32, [8 x i32], [8 x i32], i32, i32, ptr, ptr, i8, [4 x i8], [4 x i8], [7 x i8], [32768 x i8], %struct.cfl_ctx, [2 x i16], ptr, [2 x ptr] }
%struct.macroblockd_plane = type { i8, i32, i32, %struct.buf_2d, [2 x %struct.buf_2d], ptr, ptr, [8 x [2 x i16]], ptr, i8, i8, [8 x [19 x ptr]], [8 x [19 x ptr]] }
%struct.buf_2d = type { ptr, ptr, i32, i32, i32 }
%struct.TileInfo = type { i32, i32, i32, i32, i32, i32 }
%struct.WienerInfo = type { [8 x i16], [8 x i16] }
%struct.SgrprojInfo = type { i32, [2 x i32] }
%struct.candidate_mv = type { %union.int_mv, %union.int_mv }
%union.int_mv = type { i32 }
%struct.cfl_ctx = type { [1024 x i16], [1024 x i16], [2 x i32], i32, [2 x [32 x i16]], i32, i32, i32, i32, i32, i32 }
%struct.MB_MODE_INFO = type <{ i8, i8, i8, i8, i32, [2 x %union.int_mv], [2 x i8], [2 x i8], %union.int_interpfilters, i8, i8, i8, i8, %struct.WarpedMotionParams, i8, i8, [6 x i8], %struct.INTERINTER_COMPOUND_DATA, [2 x i8], %struct.FILTER_INTRA_MODE_INFO, i8, i8, %struct.PALETTE_MODE_INFO, i8, i8, [16 x i8], i8, [4 x i8], i16, [7 x i8] }>
%union.int_interpfilters = type { i32 }
%struct.WarpedMotionParams = type { [8 x i32], i16, i16, i16, i16, i8, i8 }
%struct.INTERINTER_COMPOUND_DATA = type { ptr, i8, i8, i8, i8 }
%struct.FILTER_INTRA_MODE_INFO = type { i8, i8 }
%struct.PALETTE_MODE_INFO = type { [24 x i16], [2 x i8] }

; Function Attrs: nounwind uwtable
define internal i32 @is_intrabc_block(ptr noundef %0) #0 {
  %2 = alloca ptr, align 8
  store ptr %0, ptr %2, align 8
  %3 = load ptr, ptr %2, align 8
  %4 = getelementptr inbounds nuw %struct.MB_MODE_INFO, ptr %3, i32 0, i32 28
  %5 = load i16, ptr %4, align 1
  %6 = lshr i16 %5, 7
  %7 = and i16 %6, 1
  %8 = trunc i16 %7 to i8
  %9 = zext i8 %8 to i32
  ret i32 %9
}

; Function Attrs: nounwind uwtable
define internal i32 @has_uni_comp_refs(ptr noundef %0) #0 {
  %2 = alloca ptr, align 8
  store ptr %0, ptr %2, align 8
  %3 = load ptr, ptr %2, align 8
  %4 = call i32 @has_second_ref(ptr noundef %3)
  %5 = icmp ne i32 %4, 0
  br i1 %5, label %6, label %24

6:                                                ; preds = %1
  %7 = load ptr, ptr %2, align 8
  %8 = getelementptr inbounds nuw %struct.MB_MODE_INFO, ptr %7, i32 0, i32 6
  %9 = getelementptr inbounds [2 x i8], ptr %8, i64 0, i64 0
  %10 = load i8, ptr %9, align 8
  %11 = sext i8 %10 to i32
  %12 = icmp sge i32 %11, 5
  %13 = zext i1 %12 to i32
  %14 = load ptr, ptr %2, align 8
  %15 = getelementptr inbounds nuw %struct.MB_MODE_INFO, ptr %14, i32 0, i32 6
  %16 = getelementptr inbounds [2 x i8], ptr %15, i64 0, i64 1
  %17 = load i8, ptr %16, align 1
  %18 = sext i8 %17 to i32
  %19 = icmp sge i32 %18, 5
  %20 = zext i1 %19 to i32
  %21 = xor i32 %13, %20
  %22 = icmp ne i32 %21, 0
  %23 = xor i1 %22, true
  br label %24

24:                                               ; preds = %6, %1
  %25 = phi i1 [ false, %1 ], [ %23, %6 ]
  %26 = zext i1 %25 to i32
  ret i32 %26
}

; Function Attrs: nounwind uwtable
define internal i32 @has_second_ref(ptr noundef %0) #0 {
  %2 = alloca ptr, align 8
  store ptr %0, ptr %2, align 8
  %3 = load ptr, ptr %2, align 8
  %4 = getelementptr inbounds nuw %struct.MB_MODE_INFO, ptr %3, i32 0, i32 6
  %5 = getelementptr inbounds [2 x i8], ptr %4, i64 0, i64 1
  %6 = load i8, ptr %5, align 1
  %7 = sext i8 %6 to i32
  %8 = icmp sgt i32 %7, 0
  %9 = zext i1 %8 to i32
  ret i32 %9
}

; Function Attrs: nounwind uwtable
define internal i32 @is_inter_block(ptr noundef %0) #0 {
  %2 = alloca ptr, align 8
  store ptr %0, ptr %2, align 8
  %3 = load ptr, ptr %2, align 8
  %4 = call i32 @is_intrabc_block(ptr noundef %3)
  %5 = icmp ne i32 %4, 0
  br i1 %5, label %13, label %6

6:                                                ; preds = %1
  %7 = load ptr, ptr %2, align 8
  %8 = getelementptr inbounds nuw %struct.MB_MODE_INFO, ptr %7, i32 0, i32 6
  %9 = getelementptr inbounds [2 x i8], ptr %8, i64 0, i64 0
  %10 = load i8, ptr %9, align 8
  %11 = sext i8 %10 to i32
  %12 = icmp sgt i32 %11, 0
  br label %13

13:                                               ; preds = %6, %1
  %14 = phi i1 [ true, %1 ], [ %12, %6 ]
  %15 = zext i1 %14 to i32
  ret i32 %15
}

; Function Attrs: nounwind uwtable
define hidden i32 @av1_get_comp_reference_type_context(ptr noundef %0) #0 {
  %2 = alloca ptr, align 8
  %3 = alloca i32, align 4
  %4 = alloca ptr, align 8
  %5 = alloca ptr, align 8
  %6 = alloca i32, align 4
  %7 = alloca i32, align 4
  %8 = alloca i32, align 4
  %9 = alloca i32, align 4
  %10 = alloca ptr, align 8
  %11 = alloca i32, align 4
  %12 = alloca i32, align 4
  %13 = alloca i8, align 1
  %14 = alloca i8, align 1
  %15 = alloca i32, align 4
  %16 = alloca i32, align 4
  %17 = alloca i32, align 4
  %18 = alloca ptr, align 8
  store ptr %0, ptr %2, align 8
  %19 = load ptr, ptr %2, align 8
  %20 = getelementptr inbounds nuw %struct.macroblockd, ptr %19, i32 0, i32 12
  %21 = load ptr, ptr %20, align 16
  store ptr %21, ptr %4, align 8
  %22 = load ptr, ptr %2, align 8
  %23 = getelementptr inbounds nuw %struct.macroblockd, ptr %22, i32 0, i32 11
  %24 = load ptr, ptr %23, align 8
  store ptr %24, ptr %5, align 8
  %25 = load ptr, ptr %2, align 8
  %26 = getelementptr inbounds nuw %struct.macroblockd, ptr %25, i32 0, i32 7
  %27 = load i8, ptr %26, align 16
  %28 = trunc i8 %27 to i1
  %29 = zext i1 %28 to i32
  store i32 %29, ptr %6, align 4
  %30 = load ptr, ptr %2, align 8
  %31 = getelementptr inbounds nuw %struct.macroblockd, ptr %30, i32 0, i32 8
  %32 = load i8, ptr %31, align 1
  %33 = trunc i8 %32 to i1
  %34 = zext i1 %33 to i32
  store i32 %34, ptr %7, align 4
  %35 = load i32, ptr %6, align 4
  %36 = icmp ne i32 %35, 0
  br i1 %36, label %37, label %218

37:                                               ; preds = %1
  %38 = load i32, ptr %7, align 4
  %39 = icmp ne i32 %38, 0
  br i1 %39, label %40, label %218

40:                                               ; preds = %37
  %41 = load ptr, ptr %4, align 8
  %42 = call i32 @is_inter_block(ptr noundef %41)
  %43 = icmp ne i32 %42, 0
  %44 = xor i1 %43, true
  %45 = zext i1 %44 to i32
  store i32 %45, ptr %8, align 4
  %46 = load ptr, ptr %5, align 8
  %47 = call i32 @is_inter_block(ptr noundef %46)
  %48 = icmp ne i32 %47, 0
  %49 = xor i1 %48, true
  %50 = zext i1 %49 to i32
  store i32 %50, ptr %9, align 4
  %51 = load i32, ptr %8, align 4
  %52 = icmp ne i32 %51, 0
  br i1 %52, label %53, label %57

53:                                               ; preds = %40
  %54 = load i32, ptr %9, align 4
  %55 = icmp ne i32 %54, 0
  br i1 %55, label %56, label %57

56:                                               ; preds = %53
  store i32 2, ptr %3, align 4
  br label %217

57:                                               ; preds = %53, %40
  %58 = load i32, ptr %8, align 4
  %59 = icmp ne i32 %58, 0
  br i1 %59, label %63, label %60

60:                                               ; preds = %57
  %61 = load i32, ptr %9, align 4
  %62 = icmp ne i32 %61, 0
  br i1 %62, label %63, label %82

63:                                               ; preds = %60, %57
  %64 = load i32, ptr %8, align 4
  %65 = icmp ne i32 %64, 0
  br i1 %65, label %66, label %68

66:                                               ; preds = %63
  %67 = load ptr, ptr %5, align 8
  br label %70

68:                                               ; preds = %63
  %69 = load ptr, ptr %4, align 8
  br label %70

70:                                               ; preds = %68, %66
  %71 = phi ptr [ %67, %66 ], [ %69, %68 ]
  store ptr %71, ptr %10, align 8
  %72 = load ptr, ptr %10, align 8
  %73 = call i32 @has_second_ref(ptr noundef %72)
  %74 = icmp ne i32 %73, 0
  br i1 %74, label %76, label %75

75:                                               ; preds = %70
  store i32 2, ptr %3, align 4
  br label %81

76:                                               ; preds = %70
  %77 = load ptr, ptr %10, align 8
  %78 = call i32 @has_uni_comp_refs(ptr noundef %77)
  %79 = mul nsw i32 2, %78
  %80 = add nsw i32 1, %79
  store i32 %80, ptr %3, align 4
  br label %81

81:                                               ; preds = %76, %75
  br label %216

82:                                               ; preds = %60
  %83 = load ptr, ptr %4, align 8
  %84 = call i32 @has_second_ref(ptr noundef %83)
  %85 = icmp ne i32 %84, 0
  %86 = xor i1 %85, true
  %87 = zext i1 %86 to i32
  store i32 %87, ptr %11, align 4
  %88 = load ptr, ptr %5, align 8
  %89 = call i32 @has_second_ref(ptr noundef %88)
  %90 = icmp ne i32 %89, 0
  %91 = xor i1 %90, true
  %92 = zext i1 %91 to i32
  store i32 %92, ptr %12, align 4
  %93 = load ptr, ptr %4, align 8
  %94 = getelementptr inbounds nuw %struct.MB_MODE_INFO, ptr %93, i32 0, i32 6
  %95 = getelementptr inbounds [2 x i8], ptr %94, i64 0, i64 0
  %96 = load i8, ptr %95, align 8
  store i8 %96, ptr %13, align 1
  %97 = load ptr, ptr %5, align 8
  %98 = getelementptr inbounds nuw %struct.MB_MODE_INFO, ptr %97, i32 0, i32 6
  %99 = getelementptr inbounds [2 x i8], ptr %98, i64 0, i64 0
  %100 = load i8, ptr %99, align 8
  store i8 %100, ptr %14, align 1
  %101 = load i32, ptr %11, align 4
  %102 = icmp ne i32 %101, 0
  br i1 %102, label %103, label %133

103:                                              ; preds = %82
  %104 = load i32, ptr %12, align 4
  %105 = icmp ne i32 %104, 0
  br i1 %105, label %106, label %133

106:                                              ; preds = %103
  %107 = load i8, ptr %13, align 1
  %108 = sext i8 %107 to i32
  %109 = icmp sge i32 %108, 5
  br i1 %109, label %110, label %114

110:                                              ; preds = %106
  %111 = load i8, ptr %13, align 1
  %112 = sext i8 %111 to i32
  %113 = icmp sle i32 %112, 7
  br label %114

114:                                              ; preds = %110, %106
  %115 = phi i1 [ false, %106 ], [ %113, %110 ]
  %116 = zext i1 %115 to i32
  %117 = load i8, ptr %14, align 1
  %118 = sext i8 %117 to i32
  %119 = icmp sge i32 %118, 5
  br i1 %119, label %120, label %124

120:                                              ; preds = %114
  %121 = load i8, ptr %14, align 1
  %122 = sext i8 %121 to i32
  %123 = icmp sle i32 %122, 7
  br label %124

124:                                              ; preds = %120, %114
  %125 = phi i1 [ false, %114 ], [ %123, %120 ]
  %126 = zext i1 %125 to i32
  %127 = xor i32 %116, %126
  %128 = icmp ne i32 %127, 0
  %129 = xor i1 %128, true
  %130 = zext i1 %129 to i32
  %131 = mul nsw i32 2, %130
  %132 = add nsw i32 1, %131
  store i32 %132, ptr %3, align 4
  br label %215

133:                                              ; preds = %103, %82
  %134 = load i32, ptr %12, align 4
  %135 = icmp ne i32 %134, 0
  br i1 %135, label %139, label %136

136:                                              ; preds = %133
  %137 = load i32, ptr %11, align 4
  %138 = icmp ne i32 %137, 0
  br i1 %138, label %139, label %180

139:                                              ; preds = %136, %133
  %140 = load i32, ptr %11, align 4
  %141 = icmp ne i32 %140, 0
  br i1 %141, label %142, label %145

142:                                              ; preds = %139
  %143 = load ptr, ptr %5, align 8
  %144 = call i32 @has_uni_comp_refs(ptr noundef %143)
  br label %148

145:                                              ; preds = %139
  %146 = load ptr, ptr %4, align 8
  %147 = call i32 @has_uni_comp_refs(ptr noundef %146)
  br label %148

148:                                              ; preds = %145, %142
  %149 = phi i32 [ %144, %142 ], [ %147, %145 ]
  store i32 %149, ptr %15, align 4
  %150 = load i32, ptr %15, align 4
  %151 = icmp ne i32 %150, 0
  br i1 %151, label %153, label %152

152:                                              ; preds = %148
  store i32 1, ptr %3, align 4
  br label %179

153:                                              ; preds = %148
  %154 = load i8, ptr %13, align 1
  %155 = sext i8 %154 to i32
  %156 = icmp sge i32 %155, 5
  br i1 %156, label %157, label %161

157:                                              ; preds = %153
  %158 = load i8, ptr %13, align 1
  %159 = sext i8 %158 to i32
  %160 = icmp sle i32 %159, 7
  br label %161

161:                                              ; preds = %157, %153
  %162 = phi i1 [ false, %153 ], [ %160, %157 ]
  %163 = zext i1 %162 to i32
  %164 = load i8, ptr %14, align 1
  %165 = sext i8 %164 to i32
  %166 = icmp sge i32 %165, 5
  br i1 %166, label %167, label %171

167:                                              ; preds = %161
  %168 = load i8, ptr %14, align 1
  %169 = sext i8 %168 to i32
  %170 = icmp sle i32 %169, 7
  br label %171

171:                                              ; preds = %167, %161
  %172 = phi i1 [ false, %161 ], [ %170, %167 ]
  %173 = zext i1 %172 to i32
  %174 = xor i32 %163, %173
  %175 = icmp ne i32 %174, 0
  %176 = xor i1 %175, true
  %177 = zext i1 %176 to i32
  %178 = add nsw i32 3, %177
  store i32 %178, ptr %3, align 4
  br label %179

179:                                              ; preds = %171, %152
  br label %214

180:                                              ; preds = %136
  %181 = load ptr, ptr %4, align 8
  %182 = call i32 @has_uni_comp_refs(ptr noundef %181)
  store i32 %182, ptr %16, align 4
  %183 = load ptr, ptr %5, align 8
  %184 = call i32 @has_uni_comp_refs(ptr noundef %183)
  store i32 %184, ptr %17, align 4
  %185 = load i32, ptr %16, align 4
  %186 = icmp ne i32 %185, 0
  br i1 %186, label %191, label %187

187:                                              ; preds = %180
  %188 = load i32, ptr %17, align 4
  %189 = icmp ne i32 %188, 0
  br i1 %189, label %191, label %190

190:                                              ; preds = %187
  store i32 0, ptr %3, align 4
  br label %213

191:                                              ; preds = %187, %180
  %192 = load i32, ptr %16, align 4
  %193 = icmp ne i32 %192, 0
  br i1 %193, label %194, label %197

194:                                              ; preds = %191
  %195 = load i32, ptr %17, align 4
  %196 = icmp ne i32 %195, 0
  br i1 %196, label %198, label %197

197:                                              ; preds = %194, %191
  store i32 2, ptr %3, align 4
  br label %212

198:                                              ; preds = %194
  %199 = load i8, ptr %13, align 1
  %200 = sext i8 %199 to i32
  %201 = icmp eq i32 %200, 5
  %202 = zext i1 %201 to i32
  %203 = load i8, ptr %14, align 1
  %204 = sext i8 %203 to i32
  %205 = icmp eq i32 %204, 5
  %206 = zext i1 %205 to i32
  %207 = xor i32 %202, %206
  %208 = icmp ne i32 %207, 0
  %209 = xor i1 %208, true
  %210 = zext i1 %209 to i32
  %211 = add nsw i32 3, %210
  store i32 %211, ptr %3, align 4
  br label %212

212:                                              ; preds = %198, %197
  br label %213

213:                                              ; preds = %212, %190
  br label %214

214:                                              ; preds = %213, %179
  br label %215

215:                                              ; preds = %214, %124
  br label %216

216:                                              ; preds = %215, %81
  br label %217

217:                                              ; preds = %216, %56
  br label %250

218:                                              ; preds = %37, %1
  %219 = load i32, ptr %6, align 4
  %220 = icmp ne i32 %219, 0
  br i1 %220, label %224, label %221

221:                                              ; preds = %218
  %222 = load i32, ptr %7, align 4
  %223 = icmp ne i32 %222, 0
  br i1 %223, label %224, label %248

224:                                              ; preds = %221, %218
  %225 = load i32, ptr %6, align 4
  %226 = icmp ne i32 %225, 0
  br i1 %226, label %227, label %229

227:                                              ; preds = %224
  %228 = load ptr, ptr %4, align 8
  br label %231

229:                                              ; preds = %224
  %230 = load ptr, ptr %5, align 8
  br label %231

231:                                              ; preds = %229, %227
  %232 = phi ptr [ %228, %227 ], [ %230, %229 ]
  store ptr %232, ptr %18, align 8
  %233 = load ptr, ptr %18, align 8
  %234 = call i32 @is_inter_block(ptr noundef %233)
  %235 = icmp ne i32 %234, 0
  br i1 %235, label %237, label %236

236:                                              ; preds = %231
  store i32 2, ptr %3, align 4
  br label %247

237:                                              ; preds = %231
  %238 = load ptr, ptr %18, align 8
  %239 = call i32 @has_second_ref(ptr noundef %238)
  %240 = icmp ne i32 %239, 0
  br i1 %240, label %242, label %241

241:                                              ; preds = %237
  store i32 2, ptr %3, align 4
  br label %246

242:                                              ; preds = %237
  %243 = load ptr, ptr %18, align 8
  %244 = call i32 @has_uni_comp_refs(ptr noundef %243)
  %245 = mul nsw i32 4, %244
  store i32 %245, ptr %3, align 4
  br label %246

246:                                              ; preds = %242, %241
  br label %247

247:                                              ; preds = %246, %236
  br label %249

248:                                              ; preds = %221
  store i32 2, ptr %3, align 4
  br label %249

249:                                              ; preds = %248, %247
  br label %250

250:                                              ; preds = %249, %217
  %251 = load i32, ptr %3, align 4
  ret i32 %251
}