; Function Attrs: mustprogress nofree norecurse nosync nounwind willreturn memory(read, inaccessiblemem: none) uwtable
define hidden range(i32 0, 5) i32 @av1_get_comp_reference_type_context(ptr nocapture noundef readonly %0) local_unnamed_addr #0 {
  %2 = getelementptr inbounds nuw i8, ptr %0, i64 7888
  %3 = load ptr, ptr %2, align 16
  %4 = getelementptr inbounds nuw i8, ptr %0, i64 7880
  %5 = load ptr, ptr %4, align 8
  %6 = getelementptr inbounds nuw i8, ptr %0, i64 7872
  %7 = load i8, ptr %6, align 16
  %8 = trunc i8 %7 to i1
  %9 = getelementptr inbounds nuw i8, ptr %0, i64 7873
  %10 = load i8, ptr %9, align 1
  %11 = trunc i8 %10 to i1
  %or.cond = select i1 %8, i1 %11, i1 false
  br i1 %or.cond, label %12, label %79

12:                                               ; preds = %1
  %13 = getelementptr i8, ptr %3, i64 175
  %.val.i = load i16, ptr %13, align 1
  %14 = and i16 %.val.i, 128
  %.not.i = icmp eq i16 %14, 0
  br i1 %.not.i, label %15, label %is_inter_block.exit

15:                                               ; preds = %12
  %16 = getelementptr inbounds nuw i8, ptr %3, i64 16
  %17 = load i8, ptr %16, align 8
  %18 = icmp slt i8 %17, 1
  br label %is_inter_block.exit

is_inter_block.exit:                              ; preds = %12, %15
  %.not69 = phi i1 [ false, %12 ], [ %18, %15 ]
  %19 = getelementptr i8, ptr %5, i64 175
  %.val.i78 = load i16, ptr %19, align 1
  %20 = and i16 %.val.i78, 128
  %.not.i79 = icmp eq i16 %20, 0
  br i1 %.not.i79, label %is_inter_block.exit80, label %is_inter_block.exit80.thread

is_inter_block.exit80:                            ; preds = %is_inter_block.exit
  %21 = getelementptr inbounds nuw i8, ptr %5, i64 16
  %22 = load i8, ptr %21, align 8
  %23 = icmp slt i8 %22, 1
  %or.cond3 = select i1 %.not69, i1 %23, i1 false
  br i1 %or.cond3, label %has_uni_comp_refs.exit83.thread, label %is_inter_block.exit80.thread

is_inter_block.exit80.thread:                     ; preds = %is_inter_block.exit, %is_inter_block.exit80
  %.not7097 = phi i1 [ %23, %is_inter_block.exit80 ], [ false, %is_inter_block.exit ]
  %or.cond5 = select i1 %.not69, i1 true, i1 %.not7097
  br i1 %or.cond5, label %24, label %34

24:                                               ; preds = %is_inter_block.exit80.thread
  %25 = select i1 %.not69, ptr %5, ptr %3
  %26 = getelementptr i8, ptr %25, i64 17
  %.val77 = load i8, ptr %26, align 1
  %27 = icmp slt i8 %.val77, 1
  br i1 %27, label %has_uni_comp_refs.exit83.thread, label %has_uni_comp_refs.exit

has_uni_comp_refs.exit:                           ; preds = %24
  %28 = getelementptr inbounds nuw i8, ptr %25, i64 16
  %29 = load i8, ptr %28, align 8
  %30 = icmp sgt i8 %29, 4
  %31 = icmp ult i8 %.val77, 5
  %32 = xor i1 %31, %30
  %33 = select i1 %32, i32 3, i32 1
  br label %has_uni_comp_refs.exit83.thread

34:                                               ; preds = %is_inter_block.exit80.thread
  %35 = getelementptr i8, ptr %3, i64 17
  %.val76 = load i8, ptr %35, align 1
  %36 = icmp slt i8 %.val76, 1
  %37 = getelementptr i8, ptr %5, i64 17
  %.val75 = load i8, ptr %37, align 1
  %38 = icmp slt i8 %.val75, 1
  %39 = getelementptr inbounds nuw i8, ptr %3, i64 16
  %40 = load i8, ptr %39, align 8
  %41 = getelementptr inbounds nuw i8, ptr %5, i64 16
  %42 = load i8, ptr %41, align 8
  %or.cond7 = select i1 %36, i1 %38, i1 false
  br i1 %or.cond7, label %43, label %50

43:                                               ; preds = %34
  %44 = add i8 %40, -5
  %45 = icmp ult i8 %44, 3
  %46 = add i8 %42, -8
  %47 = icmp ult i8 %46, -3
  %48 = xor i1 %45, %47
  %49 = select i1 %48, i32 3, i32 1
  br label %has_uni_comp_refs.exit83.thread

50:                                               ; preds = %34
  %or.cond9 = or i1 %36, %38
  br i1 %or.cond9, label %51, label %has_uni_comp_refs.exit87

51:                                               ; preds = %50
  br i1 %36, label %52, label %has_uni_comp_refs.exit83

52:                                               ; preds = %51
  br i1 %38, label %has_uni_comp_refs.exit83.thread, label %53

53:                                               ; preds = %52
  %54 = icmp sgt i8 %42, 4
  %55 = icmp ult i8 %.val75, 5
  %56 = xor i1 %55, %54
  br i1 %56, label %60, label %has_uni_comp_refs.exit83.thread

has_uni_comp_refs.exit83:                         ; preds = %51
  %57 = icmp sgt i8 %40, 4
  %58 = icmp ult i8 %.val76, 5
  %59 = xor i1 %58, %57
  br i1 %59, label %60, label %has_uni_comp_refs.exit83.thread

60:                                               ; preds = %53, %has_uni_comp_refs.exit83
  %61 = add i8 %40, -5
  %62 = icmp ult i8 %61, 3
  %63 = add i8 %42, -8
  %64 = icmp ult i8 %63, -3
  %65 = xor i1 %62, %64
  %66 = select i1 %65, i32 4, i32 3
  br label %has_uni_comp_refs.exit83.thread

has_uni_comp_refs.exit87:                         ; preds = %50
  %67 = icmp sgt i8 %40, 4
  %68 = icmp ult i8 %.val76, 5
  %69 = xor i1 %68, %67
  %70 = icmp sgt i8 %42, 4
  %71 = icmp ult i8 %.val75, 5
  %72 = xor i1 %71, %70
  %or.cond11 = select i1 %69, i1 true, i1 %72
  br i1 %or.cond11, label %73, label %has_uni_comp_refs.exit83.thread

73:                                               ; preds = %has_uni_comp_refs.exit87
  %or.cond13 = select i1 %69, i1 %72, i1 false
  br i1 %or.cond13, label %74, label %has_uni_comp_refs.exit83.thread

74:                                               ; preds = %73
  %75 = icmp eq i8 %40, 5
  %76 = icmp ne i8 %42, 5
  %77 = xor i1 %75, %76
  %78 = select i1 %77, i32 4, i32 3
  br label %has_uni_comp_refs.exit83.thread

79:                                               ; preds = %1
  %or.cond15 = select i1 %8, i1 true, i1 %11
  br i1 %or.cond15, label %80, label %has_uni_comp_refs.exit83.thread

80:                                               ; preds = %79
  %81 = select i1 %8, ptr %3, ptr %5
  %82 = getelementptr i8, ptr %81, i64 175
  %.val.i90 = load i16, ptr %82, align 1
  %83 = and i16 %.val.i90, 128
  %.not.i91 = icmp eq i16 %83, 0
  br i1 %.not.i91, label %is_inter_block.exit92, label %is_inter_block.exit92.thread

is_inter_block.exit92:                            ; preds = %80
  %84 = getelementptr inbounds nuw i8, ptr %81, i64 16
  %85 = load i8, ptr %84, align 8
  %86 = icmp slt i8 %85, 1
  br i1 %86, label %has_uni_comp_refs.exit83.thread, label %is_inter_block.exit92.thread

is_inter_block.exit92.thread:                     ; preds = %80, %is_inter_block.exit92
  %87 = getelementptr i8, ptr %81, i64 17
  %.val = load i8, ptr %87, align 1
  %88 = icmp slt i8 %.val, 1
  br i1 %88, label %has_uni_comp_refs.exit83.thread, label %has_uni_comp_refs.exit94

has_uni_comp_refs.exit94:                         ; preds = %is_inter_block.exit92.thread
  %89 = getelementptr inbounds nuw i8, ptr %81, i64 16
  %90 = load i8, ptr %89, align 8
  %91 = icmp sgt i8 %90, 4
  %92 = icmp ult i8 %.val, 5
  %93 = xor i1 %92, %91
  %94 = select i1 %93, i32 4, i32 0
  br label %has_uni_comp_refs.exit83.thread

has_uni_comp_refs.exit83.thread:                  ; preds = %53, %52, %79, %is_inter_block.exit92.thread, %is_inter_block.exit92, %73, %has_uni_comp_refs.exit87, %has_uni_comp_refs.exit83, %24, %is_inter_block.exit80, %has_uni_comp_refs.exit94, %43, %74, %60, %has_uni_comp_refs.exit
  %.0 = phi i32 [ %33, %has_uni_comp_refs.exit ], [ %49, %43 ], [ %66, %60 ], [ %78, %74 ], [ %94, %has_uni_comp_refs.exit94 ], [ 2, %is_inter_block.exit80 ], [ 2, %24 ], [ 1, %has_uni_comp_refs.exit83 ], [ 0, %has_uni_comp_refs.exit87 ], [ 2, %73 ], [ 2, %is_inter_block.exit92 ], [ 2, %is_inter_block.exit92.thread ], [ 2, %79 ], [ 1, %52 ], [ 1, %53 ]
  ret i32 %.0
}